target datalayout = "e-m:e-p270:32:32-p271:32:32-p272:64:64-i64:64-i128:128-f80:128-n8:16:32:64-S128"
target triple = "x86_64-pc-linux-gnu"

%struct.TuplesortPublic = type { ptr, ptr, ptr, ptr, ptr, ptr, ptr, ptr, ptr, i8, i32, ptr, ptr, i32, i8, ptr }
%struct.ItemPointerData = type { %struct.BlockIdData, i16 }
%struct.BlockIdData = type { i16, i16 }
%struct.SortTuple = type { ptr, i64, i8, i32 }
%struct.TuplesortIndexArg = type { ptr, ptr }
%struct.IndexTupleData = type { %struct.ItemPointerData, i16 }
%struct.TuplesortIndexHashArg = type { %struct.TuplesortIndexArg, i32, i32, i32 }

; Function Attrs: inlinehint nounwind uwtable
define internal i32 @BlockIdGetBlockNumber(ptr noundef %0) #3 {
  %2 = alloca ptr, align 8
  store ptr %0, ptr %2, align 8
  %3 = load ptr, ptr %2, align 8
  %4 = getelementptr inbounds nuw %struct.BlockIdData, ptr %3, i32 0, i32 0
  %5 = load i16, ptr %4, align 2
  %6 = zext i16 %5 to i32
  %7 = shl i32 %6, 16
  %8 = load ptr, ptr %2, align 8
  %9 = getelementptr inbounds nuw %struct.BlockIdData, ptr %8, i32 0, i32 1
  %10 = load i16, ptr %9, align 2
  %11 = zext i16 %10 to i32
  %12 = or i32 %7, %11
  ret i32 %12
}

; Function Attrs: inlinehint nounwind uwtable
define internal zeroext i16 @ItemPointerGetOffsetNumberNoCheck(ptr noundef %0) #3 {
  %2 = alloca ptr, align 8
  store ptr %0, ptr %2, align 8
  %3 = load ptr, ptr %2, align 8
  %4 = getelementptr inbounds nuw %struct.ItemPointerData, ptr %3, i32 0, i32 1
  %5 = load i16, ptr %4, align 2
  ret i16 %5
}

; Function Attrs: inlinehint nounwind uwtable
define internal i32 @ItemPointerGetBlockNumberNoCheck(ptr noundef %0) #3 {
  %2 = alloca ptr, align 8
  store ptr %0, ptr %2, align 8
  %3 = load ptr, ptr %2, align 8
  %4 = getelementptr inbounds nuw %struct.ItemPointerData, ptr %3, i32 0, i32 0
  %5 = call i32 @BlockIdGetBlockNumber(ptr noundef %4)
  ret i32 %5
}

; Function Attrs: inlinehint nounwind uwtable
define internal zeroext i16 @ItemPointerGetOffsetNumber(ptr noundef %0) #3 {
  %2 = alloca ptr, align 8
  store ptr %0, ptr %2, align 8
  %3 = load ptr, ptr %2, align 8
  %4 = call zeroext i16 @ItemPointerGetOffsetNumberNoCheck(ptr noundef %3)
  ret i16 %4
}

; Function Attrs: inlinehint nounwind uwtable
define internal i32 @ItemPointerGetBlockNumber(ptr noundef %0) #3 {
  %2 = alloca ptr, align 8
  store ptr %0, ptr %2, align 8
  %3 = load ptr, ptr %2, align 8
  %4 = call i32 @ItemPointerGetBlockNumberNoCheck(ptr noundef %3)
  ret i32 %4
}

; Function Attrs: inlinehint nounwind uwtable
define internal i32 @DatumGetUInt32(i64 noundef %0) #3 {
  %2 = alloca i64, align 8
  store i64 %0, ptr %2, align 8
  %3 = load i64, ptr %2, align 8
  %4 = trunc i64 %3 to i32
  ret i32 %4
}

; Function Attrs: nounwind uwtable
define internal i32 @comparetup_index_hash(ptr noundef %0, ptr noundef %1, ptr noundef %2) #0 {
  %4 = alloca i32, align 4
  %5 = alloca ptr, align 8
  %6 = alloca ptr, align 8
  %7 = alloca ptr, align 8
  %8 = alloca i32, align 4
  %9 = alloca i32, align 4
  %10 = alloca i32, align 4
  %11 = alloca i32, align 4
  %12 = alloca ptr, align 8
  %13 = alloca ptr, align 8
  %14 = alloca ptr, align 8
  %15 = alloca ptr, align 8
  %16 = alloca i32, align 4
  %17 = alloca i32, align 4
  %18 = alloca i32, align 4
  %19 = alloca i16, align 2
  %20 = alloca i16, align 2
  store ptr %0, ptr %5, align 8
  store ptr %1, ptr %6, align 8
  store ptr %2, ptr %7, align 8
  call void @llvm.lifetime.start.p0(i64 4, ptr %8) #6
  call void @llvm.lifetime.start.p0(i64 4, ptr %9) #6
  call void @llvm.lifetime.start.p0(i64 4, ptr %10) #6
  call void @llvm.lifetime.start.p0(i64 4, ptr %11) #6
  call void @llvm.lifetime.start.p0(i64 8, ptr %12) #6
  call void @llvm.lifetime.start.p0(i64 8, ptr %13) #6
  call void @llvm.lifetime.start.p0(i64 8, ptr %14) #6
  %21 = load ptr, ptr %7, align 8
  store ptr %21, ptr %14, align 8
  call void @llvm.lifetime.start.p0(i64 8, ptr %15) #6
  %22 = load ptr, ptr %14, align 8
  %23 = getelementptr inbounds nuw %struct.TuplesortPublic, ptr %22, i32 0, i32 15
  %24 = load ptr, ptr %23, align 8
  store ptr %24, ptr %15, align 8
  %25 = load ptr, ptr %5, align 8
  %26 = getelementptr inbounds nuw %struct.SortTuple, ptr %25, i32 0, i32 1
  %27 = load i64, ptr %26, align 8
  %28 = call i32 @DatumGetUInt32(i64 noundef %27)
  %29 = load ptr, ptr %15, align 8
  %30 = getelementptr inbounds nuw %struct.TuplesortIndexHashArg, ptr %29, i32 0, i32 3
  %31 = load i32, ptr %30, align 8
  %32 = load ptr, ptr %15, align 8
  %33 = getelementptr inbounds nuw %struct.TuplesortIndexHashArg, ptr %32, i32 0, i32 1
  %34 = load i32, ptr %33, align 8
  %35 = load ptr, ptr %15, align 8
  %36 = getelementptr inbounds nuw %struct.TuplesortIndexHashArg, ptr %35, i32 0, i32 2
  %37 = load i32, ptr %36, align 4
  %38 = call i32 @_hash_hashkey2bucket(i32 noundef %28, i32 noundef %31, i32 noundef %34, i32 noundef %37)
  store i32 %38, ptr %8, align 4
  %39 = load ptr, ptr %6, align 8
  %40 = getelementptr inbounds nuw %struct.SortTuple, ptr %39, i32 0, i32 1
  %41 = load i64, ptr %40, align 8
  %42 = call i32 @DatumGetUInt32(i64 noundef %41)
  %43 = load ptr, ptr %15, align 8
  %44 = getelementptr inbounds nuw %struct.TuplesortIndexHashArg, ptr %43, i32 0, i32 3
  %45 = load i32, ptr %44, align 8
  %46 = load ptr, ptr %15, align 8
  %47 = getelementptr inbounds nuw %struct.TuplesortIndexHashArg, ptr %46, i32 0, i32 1
  %48 = load i32, ptr %47, align 8
  %49 = load ptr, ptr %15, align 8
  %50 = getelementptr inbounds nuw %struct.TuplesortIndexHashArg, ptr %49, i32 0, i32 2
  %51 = load i32, ptr %50, align 4
  %52 = call i32 @_hash_hashkey2bucket(i32 noundef %42, i32 noundef %45, i32 noundef %48, i32 noundef %51)
  store i32 %52, ptr %9, align 4
  %53 = load i32, ptr %8, align 4
  %54 = load i32, ptr %9, align 4
  %55 = icmp ugt i32 %53, %54
  br i1 %55, label %56, label %57

56:                                               ; preds = %3
  store i32 1, ptr %4, align 4
  store i32 1, ptr %16, align 4
  br label %129

57:                                               ; preds = %3
  %58 = load i32, ptr %8, align 4
  %59 = load i32, ptr %9, align 4
  %60 = icmp ult i32 %58, %59
  br i1 %60, label %61, label %62

61:                                               ; preds = %57
  store i32 -1, ptr %4, align 4
  store i32 1, ptr %16, align 4
  br label %129

62:                                               ; preds = %57
  br label %63

63:                                               ; preds = %62
  %64 = load ptr, ptr %5, align 8
  %65 = getelementptr inbounds nuw %struct.SortTuple, ptr %64, i32 0, i32 1
  %66 = load i64, ptr %65, align 8
  %67 = call i32 @DatumGetUInt32(i64 noundef %66)
  store i32 %67, ptr %10, align 4
  %68 = load ptr, ptr %6, align 8
  %69 = getelementptr inbounds nuw %struct.SortTuple, ptr %68, i32 0, i32 1
  %70 = load i64, ptr %69, align 8
  %71 = call i32 @DatumGetUInt32(i64 noundef %70)
  store i32 %71, ptr %11, align 4
  %72 = load i32, ptr %10, align 4
  %73 = load i32, ptr %11, align 4
  %74 = icmp ugt i32 %72, %73
  br i1 %74, label %75, label %76

75:                                               ; preds = %63
  store i32 1, ptr %4, align 4
  store i32 1, ptr %16, align 4
  br label %129

76:                                               ; preds = %63
  %77 = load i32, ptr %10, align 4
  %78 = load i32, ptr %11, align 4
  %79 = icmp ult i32 %77, %78
  br i1 %79, label %80, label %81

80:                                               ; preds = %76
  store i32 -1, ptr %4, align 4
  store i32 1, ptr %16, align 4
  br label %129

81:                                               ; preds = %76
  br label %82

82:                                               ; preds = %81
  %83 = load ptr, ptr %5, align 8
  %84 = getelementptr inbounds nuw %struct.SortTuple, ptr %83, i32 0, i32 0
  %85 = load ptr, ptr %84, align 8
  store ptr %85, ptr %12, align 8
  %86 = load ptr, ptr %6, align 8
  %87 = getelementptr inbounds nuw %struct.SortTuple, ptr %86, i32 0, i32 0
  %88 = load ptr, ptr %87, align 8
  store ptr %88, ptr %13, align 8
  call void @llvm.lifetime.start.p0(i64 4, ptr %17) #6
  %89 = load ptr, ptr %12, align 8
  %90 = getelementptr inbounds nuw %struct.IndexTupleData, ptr %89, i32 0, i32 0
  %91 = call i32 @ItemPointerGetBlockNumber(ptr noundef %90)
  store i32 %91, ptr %17, align 4
  call void @llvm.lifetime.start.p0(i64 4, ptr %18) #6
  %92 = load ptr, ptr %13, align 8
  %93 = getelementptr inbounds nuw %struct.IndexTupleData, ptr %92, i32 0, i32 0
  %94 = call i32 @ItemPointerGetBlockNumber(ptr noundef %93)
  store i32 %94, ptr %18, align 4
  %95 = load i32, ptr %17, align 4
  %96 = load i32, ptr %18, align 4
  %97 = icmp ne i32 %95, %96
  br i1 %97, label %98, label %103

98:                                               ; preds = %82
  %99 = load i32, ptr %17, align 4
  %100 = load i32, ptr %18, align 4
  %101 = icmp ult i32 %99, %100
  %102 = select i1 %101, i32 -1, i32 1
  store i32 %102, ptr %4, align 4
  store i32 1, ptr %16, align 4
  br label %104

103:                                              ; preds = %82
  store i32 0, ptr %16, align 4
  br label %104

104:                                              ; preds = %103, %98
  call void @llvm.lifetime.end.p0(i64 4, ptr %18) #6
  call void @llvm.lifetime.end.p0(i64 4, ptr %17) #6
  %105 = load i32, ptr %16, align 4
  switch i32 %105, label %129 [
    i32 0, label %106
  ]

106:                                              ; preds = %104
  call void @llvm.lifetime.start.p0(i64 2, ptr %19) #6
  %107 = load ptr, ptr %12, align 8
  %108 = getelementptr inbounds nuw %struct.IndexTupleData, ptr %107, i32 0, i32 0
  %109 = call zeroext i16 @ItemPointerGetOffsetNumber(ptr noundef %108)
  store i16 %109, ptr %19, align 2
  call void @llvm.lifetime.start.p0(i64 2, ptr %20) #6
  %110 = load ptr, ptr %13, align 8
  %111 = getelementptr inbounds nuw %struct.IndexTupleData, ptr %110, i32 0, i32 0
  %112 = call zeroext i16 @ItemPointerGetOffsetNumber(ptr noundef %111)
  store i16 %112, ptr %20, align 2
  %113 = load i16, ptr %19, align 2
  %114 = zext i16 %113 to i32
  %115 = load i16, ptr %20, align 2
  %116 = zext i16 %115 to i32
  %117 = icmp ne i32 %114, %116
  br i1 %117, label %118, label %125

118:                                              ; preds = %106
  %119 = load i16, ptr %19, align 2
  %120 = zext i16 %119 to i32
  %121 = load i16, ptr %20, align 2
  %122 = zext i16 %121 to i32
  %123 = icmp slt i32 %120, %122
  %124 = select i1 %123, i32 -1, i32 1
  store i32 %124, ptr %4, align 4
  store i32 1, ptr %16, align 4
  br label %126

125:                                              ; preds = %106
  store i32 0, ptr %16, align 4
  br label %126

126:                                              ; preds = %125, %118
  call void @llvm.lifetime.end.p0(i64 2, ptr %20) #6
  call void @llvm.lifetime.end.p0(i64 2, ptr %19) #6
  %127 = load i32, ptr %16, align 4
  switch i32 %127, label %129 [
    i32 0, label %128
  ]

128:                                              ; preds = %126
  store i32 0, ptr %4, align 4
  store i32 1, ptr %16, align 4
  br label %129

129:                                              ; preds = %128, %126, %104, %80, %75, %61, %56
  call void @llvm.lifetime.end.p0(i64 8, ptr %15) #6
  call void @llvm.lifetime.end.p0(i64 8, ptr %14) #6
  call void @llvm.lifetime.end.p0(i64 8, ptr %13) #6
  call void @llvm.lifetime.end.p0(i64 8, ptr %12) #6
  call void @llvm.lifetime.end.p0(i64 4, ptr %11) #6
  call void @llvm.lifetime.end.p0(i64 4, ptr %10) #6
  call void @llvm.lifetime.end.p0(i64 4, ptr %9) #6
  call void @llvm.lifetime.end.p0(i64 4, ptr %8) #6
  %130 = load i32, ptr %4, align 4
  ret i32 %130
}