; Function Attrs: nounwind uwtable
define internal range(i32 -1, 2) i32 @comparetup_index_hash(ptr noundef readonly captures(none) %0, ptr noundef readonly captures(none) %1, ptr noundef readonly captures(none) %2) #0 {
  %4 = getelementptr inbounds nuw i8, ptr %2, i64 104
  %5 = load ptr, ptr %4, align 8
  %6 = getelementptr inbounds nuw i8, ptr %0, i64 8
  %7 = load i64, ptr %6, align 8
  %8 = trunc i64 %7 to i32
  %9 = getelementptr inbounds nuw i8, ptr %5, i64 24
  %10 = load i32, ptr %9, align 8
  %11 = getelementptr inbounds nuw i8, ptr %5, i64 16
  %12 = load i32, ptr %11, align 8
  %13 = getelementptr inbounds nuw i8, ptr %5, i64 20
  %14 = load i32, ptr %13, align 4
  %15 = tail call i32 @_hash_hashkey2bucket(i32 noundef %8, i32 noundef %10, i32 noundef %12, i32 noundef %14) #12
  %16 = getelementptr inbounds nuw i8, ptr %1, i64 8
  %17 = load i64, ptr %16, align 8
  %18 = trunc i64 %17 to i32
  %19 = load i32, ptr %9, align 8
  %20 = load i32, ptr %11, align 8
  %21 = load i32, ptr %13, align 4
  %22 = tail call i32 @_hash_hashkey2bucket(i32 noundef %18, i32 noundef %19, i32 noundef %20, i32 noundef %21) #12
  %23 = icmp ugt i32 %15, %22
  br i1 %23, label %52, label %24

24:                                               ; preds = %3
  %25 = icmp ult i32 %15, %22
  br i1 %25, label %52, label %26

26:                                               ; preds = %24
  %27 = load i64, ptr %6, align 8
  %28 = trunc i64 %27 to i32
  %29 = load i64, ptr %16, align 8
  %30 = trunc i64 %29 to i32
  %31 = icmp ugt i32 %28, %30
  br i1 %31, label %52, label %32

32:                                               ; preds = %26
  %33 = icmp ult i32 %28, %30
  br i1 %33, label %52, label %34

34:                                               ; preds = %32
  %35 = load ptr, ptr %0, align 8
  %36 = load ptr, ptr %1, align 8
  %.val = load i16, ptr %35, align 2
  %37 = getelementptr i8, ptr %35, i64 2
  %.val48 = load i16, ptr %37, align 2
  %38 = zext i16 %.val to i32
  %39 = shl nuw i32 %38, 16
  %40 = zext i16 %.val48 to i32
  %41 = or disjoint i32 %39, %40
  %.val49 = load i16, ptr %36, align 2
  %42 = getelementptr i8, ptr %36, i64 2
  %.val50 = load i16, ptr %42, align 2
  %43 = zext i16 %.val49 to i32
  %44 = shl nuw i32 %43, 16
  %45 = zext i16 %.val50 to i32
  %46 = or disjoint i32 %44, %45
  %.not = icmp eq i32 %41, %46
  %47 = icmp ult i32 %41, %46
  %48 = select i1 %47, i32 -1, i32 1
  br i1 %.not, label %49, label %52

49:                                               ; preds = %34
  %50 = getelementptr i8, ptr %35, i64 4
  %.val51 = load i16, ptr %50, align 2
  %51 = getelementptr i8, ptr %36, i64 4
  %.val52 = load i16, ptr %51, align 2
  %spec.select = tail call i32 @llvm.ucmp.i32.i16(i16 %.val51, i16 %.val52)
  br label %52

52:                                               ; preds = %49, %32, %26, %24, %3, %34
  %.0 = phi i32 [ %48, %34 ], [ 1, %3 ], [ -1, %24 ], [ 1, %26 ], [ -1, %32 ], [ %spec.select, %49 ]
  ret i32 %.0
}